(dp0
S'failed'
p1
(lp2
sS'source_names'
p3
(lp4
S'.'
p5
asS'ids'
p6
(dp7
I1
(S'/Users/maxnikitin/Development/Projects/my/Spritemapper/tests/test_mapper.py'
p8
S'tests.test_mapper'
p9
S'inner'
p10
tp11
sI2
(S'/Users/maxnikitin/Development/Projects/my/Spritemapper/tests/test_mapper.py'
p12
g9
S'test_confed_single_map'
p13
tp14
sI3
(S'/Users/maxnikitin/Development/Projects/my/Spritemapper/tests/test_parser.py'
p15
S'tests.test_parser'
p16
S'test_reprint_trivial'
p17
tp18
sI4
(S'/Users/maxnikitin/Development/Projects/my/Spritemapper/tests/test_parser.py'
p19
g16
S'test_reprint_escapes'
p20
tp21
sI5
(S'/Users/maxnikitin/Development/Projects/my/Spritemapper/tests/test_parser.py'
p22
g16
S'test_reprint_test_files'
p23
tp24
sI6
(S'/Users/maxnikitin/Development/Projects/my/Spritemapper/tests/test_tokenizer.py'
p25
S'tests.test_tokenizer'
p26
S'test_tokenize_comments'
p27
tp28
sI7
(S'/Users/maxnikitin/Development/Projects/my/Spritemapper/tests/test_tokenizer.py'
p29
g26
S'test_tokenize_block'
p30
tp31
sI8
(S'/Users/maxnikitin/Development/Projects/my/Spritemapper/tests/test_tokenizer.py'
p32
g26
S'test_tokenize_quoted'
p33
tp34
ss.